target datalayout = "e-m:e-p270:32:32-p271:32:32-p272:64:64-i64:64-i128:128-f80:128-n8:16:32:64-S128"
target triple = "x86_64-pc-linux-gnu"

%struct.pointf_s = type { double, double }
%struct.boxf = type { %struct.pointf_s, %struct.pointf_s }
%struct.field_t = type { %struct.pointf_s, %struct.boxf, i32, ptr, ptr, ptr, i8, i8 }

; Function Attrs: inlinehint nounwind uwtable
define internal zeroext i1 @streq(ptr noundef %0, ptr noundef %1) #5 {
  %3 = alloca ptr, align 8
  %4 = alloca ptr, align 8
  store ptr %0, ptr %3, align 8, !tbaa !75
  store ptr %1, ptr %4, align 8, !tbaa !75
  %5 = load ptr, ptr %3, align 8, !tbaa !75
  %6 = load ptr, ptr %4, align 8, !tbaa !75
  %7 = call i32 @strcmp(ptr noundef %5, ptr noundef %6) #17
  %8 = icmp eq i32 %7, 0
  ret i1 %8
}

; Function Attrs: nounwind uwtable
define internal ptr @map_rec_port(ptr noundef %0, ptr noundef %1) #0 {
  %3 = alloca ptr, align 8
  %4 = alloca ptr, align 8
  %5 = alloca ptr, align 8
  %6 = alloca i32, align 4
  store ptr %0, ptr %3, align 8, !tbaa !120
  store ptr %1, ptr %4, align 8, !tbaa !75
  call void @llvm.lifetime.start.p0(i64 8, ptr %5) #13
  call void @llvm.lifetime.start.p0(i64 4, ptr %6) #13
  %7 = load ptr, ptr %3, align 8, !tbaa !120
  %8 = getelementptr inbounds nuw %struct.field_t, ptr %7, i32 0, i32 5
  %9 = load ptr, ptr %8, align 8, !tbaa !180
  %10 = icmp ne ptr %9, null
  br i1 %10, label %11, label %19

11:                                               ; preds = %2
  %12 = load ptr, ptr %3, align 8, !tbaa !120
  %13 = getelementptr inbounds nuw %struct.field_t, ptr %12, i32 0, i32 5
  %14 = load ptr, ptr %13, align 8, !tbaa !180
  %15 = load ptr, ptr %4, align 8, !tbaa !75
  %16 = call zeroext i1 @streq(ptr noundef %14, ptr noundef %15)
  br i1 %16, label %17, label %19

17:                                               ; preds = %11
  %18 = load ptr, ptr %3, align 8, !tbaa !120
  store ptr %18, ptr %5, align 8, !tbaa !120
  br label %43

19:                                               ; preds = %11, %2
  store ptr null, ptr %5, align 8, !tbaa !120
  store i32 0, ptr %6, align 4, !tbaa !12
  br label %20

20:                                               ; preds = %39, %19
  %21 = load i32, ptr %6, align 4, !tbaa !12
  %22 = load ptr, ptr %3, align 8, !tbaa !120
  %23 = getelementptr inbounds nuw %struct.field_t, ptr %22, i32 0, i32 2
  %24 = load i32, ptr %23, align 8, !tbaa !185
  %25 = icmp slt i32 %21, %24
  br i1 %25, label %26, label %42

26:                                               ; preds = %20
  %27 = load ptr, ptr %3, align 8, !tbaa !120
  %28 = getelementptr inbounds nuw %struct.field_t, ptr %27, i32 0, i32 4
  %29 = load ptr, ptr %28, align 8, !tbaa !176
  %30 = load i32, ptr %6, align 4, !tbaa !12
  %31 = sext i32 %30 to i64
  %32 = getelementptr inbounds ptr, ptr %29, i64 %31
  %33 = load ptr, ptr %32, align 8, !tbaa !120
  %34 = load ptr, ptr %4, align 8, !tbaa !75
  %35 = call ptr @map_rec_port(ptr noundef %33, ptr noundef %34)
  store ptr %35, ptr %5, align 8, !tbaa !120
  %36 = icmp ne ptr %35, null
  br i1 %36, label %37, label %38

37:                                               ; preds = %26
  br label %42

38:                                               ; preds = %26
  br label %39

39:                                               ; preds = %38
  %40 = load i32, ptr %6, align 4, !tbaa !12
  %41 = add nsw i32 %40, 1
  store i32 %41, ptr %6, align 4, !tbaa !12
  br label %20, !llvm.loop !238

42:                                               ; preds = %37, %20
  br label %43

43:                                               ; preds = %42, %17
  %44 = load ptr, ptr %5, align 8, !tbaa !120
  call void @llvm.lifetime.end.p0(i64 4, ptr %6) #13
  call void @llvm.lifetime.end.p0(i64 8, ptr %5) #13
  ret ptr %44
}