; Function Attrs: nofree nounwind memory(read, inaccessiblemem: none) uwtable
define internal fastcc ptr @map_rec_port(ptr noundef readonly captures(ret: address, provenance) %0, ptr noundef readonly captures(none) %1) unnamed_addr #12 {
  %3 = getelementptr inbounds nuw i8, ptr %0, i64 72
  %4 = load ptr, ptr %3, align 8, !tbaa !158
  %.not = icmp eq ptr %4, null
  br i1 %.not, label %8, label %5

5:                                                ; preds = %2
  %6 = tail call i32 @strcmp(ptr noundef nonnull readonly dereferenceable(1) %4, ptr noundef nonnull readonly dereferenceable(1) %1) #31
  %7 = icmp eq i32 %6, 0
  br i1 %7, label %.loopexit, label %8

8:                                                ; preds = %5, %2
  %9 = getelementptr inbounds nuw i8, ptr %0, i64 48
  %10 = load i32, ptr %9, align 8, !tbaa !163
  %11 = icmp sgt i32 %10, 0
  br i1 %11, label %.lr.ph, label %.loopexit

.lr.ph:                                           ; preds = %8
  %12 = getelementptr inbounds nuw i8, ptr %0, i64 64
  %13 = load ptr, ptr %12, align 8, !tbaa !152
  %wide.trip.count = zext nneg i32 %10 to i64
  br label %15

14:                                               ; preds = %15
  %indvars.iv.next = add nuw nsw i64 %indvars.iv, 1
  %exitcond.not = icmp eq i64 %indvars.iv.next, %wide.trip.count
  br i1 %exitcond.not, label %.loopexit, label %15, !llvm.loop !215

15:                                               ; preds = %.lr.ph, %14
  %indvars.iv = phi i64 [ 0, %.lr.ph ], [ %indvars.iv.next, %14 ]
  %16 = getelementptr inbounds nuw ptr, ptr %13, i64 %indvars.iv
  %17 = load ptr, ptr %16, align 8, !tbaa !156
  %18 = tail call fastcc ptr @map_rec_port(ptr noundef %17, ptr noundef %1)
  %.not14 = icmp eq ptr %18, null
  br i1 %.not14, label %14, label %.loopexit

.loopexit:                                        ; preds = %15, %14, %8, %5
  %.010 = phi ptr [ %0, %5 ], [ null, %8 ], [ %18, %15 ], [ null, %14 ]
  ret ptr %.010
}